target datalayout = "e-m:e-p270:32:32-p271:32:32-p272:64:64-i64:64-i128:128-f80:128-n8:16:32:64-S128"
target triple = "x86_64-pc-linux-gnu"

%class.btVector3 = type { [4 x float] }
%class.btConeTwistConstraint = type { %class.btTypedConstraint, [3 x %class.btJacobianEntry], %class.btTransform, %class.btTransform, float, float, float, float, float, float, float, float, %class.btVector3, %class.btVector3, float, float, float, float, float, float, float, float, i8, i8, i8, i8, float, float, %class.btVector3, i8, i8, %class.btQuaternion, float, %class.btVector3, i32, float, float, float }
%class.btTypedConstraint = type { ptr, %struct.btTypedObject, i32, %union.anon.0, float, i8, i8, i32, ptr, ptr, float, float, ptr }
%struct.btTypedObject = type { i32 }
%union.anon.0 = type { ptr }
%class.btJacobianEntry = type { %class.btVector3, %class.btVector3, %class.btVector3, %class.btVector3, %class.btVector3, float }
%class.btTransform = type { %class.btMatrix3x3, %class.btVector3 }
%class.btMatrix3x3 = type { [3 x %class.btVector3] }
%class.btQuaternion = type { %class.btQuadWord }
%class.btQuadWord = type { [4 x float] }

; Function Attrs: mustprogress nounwind uwtable
define linkonce_odr dso_local void @_ZN21btConeTwistConstraint8setLimitEffffff(ptr noundef nonnull align 8 dereferenceable(632) %0, float noundef %1, float noundef %2, float noundef %3, float noundef %4, float noundef %5, float noundef %6) #1 comdat align 2 {
  %8 = alloca ptr, align 8
  %9 = alloca float, align 4
  %10 = alloca float, align 4
  %11 = alloca float, align 4
  %12 = alloca float, align 4
  %13 = alloca float, align 4
  %14 = alloca float, align 4
  store ptr %0, ptr %8, align 8, !tbaa !12
  store float %1, ptr %9, align 4, !tbaa !50
  store float %2, ptr %10, align 4, !tbaa !50
  store float %3, ptr %11, align 4, !tbaa !50
  store float %4, ptr %12, align 4, !tbaa !50
  store float %5, ptr %13, align 4, !tbaa !50
  store float %6, ptr %14, align 4, !tbaa !50
  %15 = load ptr, ptr %8, align 8
  %16 = load float, ptr %9, align 4, !tbaa !50
  %17 = getelementptr inbounds nuw %class.btConeTwistConstraint, ptr %15, i32 0, i32 8
  store float %16, ptr %17, align 4, !tbaa !53
  %18 = load float, ptr %10, align 4, !tbaa !50
  %19 = getelementptr inbounds nuw %class.btConeTwistConstraint, ptr %15, i32 0, i32 9
  store float %18, ptr %19, align 8, !tbaa !54
  %20 = load float, ptr %11, align 4, !tbaa !50
  %21 = getelementptr inbounds nuw %class.btConeTwistConstraint, ptr %15, i32 0, i32 10
  store float %20, ptr %21, align 4, !tbaa !55
  %22 = load float, ptr %12, align 4, !tbaa !50
  %23 = getelementptr inbounds nuw %class.btConeTwistConstraint, ptr %15, i32 0, i32 4
  store float %22, ptr %23, align 4, !tbaa !56
  %24 = load float, ptr %13, align 4, !tbaa !50
  %25 = getelementptr inbounds nuw %class.btConeTwistConstraint, ptr %15, i32 0, i32 5
  store float %24, ptr %25, align 8, !tbaa !57
  %26 = load float, ptr %14, align 4, !tbaa !50
  %27 = getelementptr inbounds nuw %class.btConeTwistConstraint, ptr %15, i32 0, i32 6
  store float %26, ptr %27, align 4, !tbaa !58
  ret void
}

; Function Attrs: mustprogress uwtable
define dso_local void @_ZN21btConeTwistConstraint4initEv(ptr noundef nonnull align 8 dereferenceable(632) %0) #2 align 2 {
  %2 = alloca ptr, align 8
  store ptr %0, ptr %2, align 8, !tbaa !12
  %3 = load ptr, ptr %2, align 8
  %4 = getelementptr inbounds nuw %class.btConeTwistConstraint, ptr %3, i32 0, i32 22
  store i8 0, ptr %4, align 4, !tbaa !20
  %5 = getelementptr inbounds nuw %class.btConeTwistConstraint, ptr %3, i32 0, i32 23
  store i8 0, ptr %5, align 1, !tbaa !40
  %6 = getelementptr inbounds nuw %class.btConeTwistConstraint, ptr %3, i32 0, i32 24
  store i8 0, ptr %6, align 2, !tbaa !41
  %7 = getelementptr inbounds nuw %class.btConeTwistConstraint, ptr %3, i32 0, i32 29
  store i8 0, ptr %7, align 8, !tbaa !42
  %8 = getelementptr inbounds nuw %class.btConeTwistConstraint, ptr %3, i32 0, i32 32
  store float -1.000000e+00, ptr %8, align 4, !tbaa !43
  call void @_ZN21btConeTwistConstraint8setLimitEffffff(ptr noundef nonnull align 8 dereferenceable(632) %3, float noundef 0x43ABC16D60000000, float noundef 0x43ABC16D60000000, float noundef 0x43ABC16D60000000, float noundef 1.000000e+00, float noundef 0x3FD3333340000000, float noundef 1.000000e+00)
  %9 = getelementptr inbounds nuw %class.btConeTwistConstraint, ptr %3, i32 0, i32 7
  store float 0x3F847AE140000000, ptr %9, align 8, !tbaa !44
  %10 = getelementptr inbounds nuw %class.btConeTwistConstraint, ptr %3, i32 0, i32 11
  store float 0x3FA99999A0000000, ptr %10, align 8, !tbaa !45
  %11 = getelementptr inbounds nuw %class.btConeTwistConstraint, ptr %3, i32 0, i32 34
  store i32 0, ptr %11, align 8, !tbaa !46
  %12 = getelementptr inbounds nuw %class.btConeTwistConstraint, ptr %3, i32 0, i32 35
  store float 0.000000e+00, ptr %12, align 4, !tbaa !47
  %13 = getelementptr inbounds nuw %class.btConeTwistConstraint, ptr %3, i32 0, i32 36
  store float 0x3FE6666660000000, ptr %13, align 8, !tbaa !48
  %14 = getelementptr inbounds nuw %class.btConeTwistConstraint, ptr %3, i32 0, i32 37
  store float 0.000000e+00, ptr %14, align 4, !tbaa !49
  ret void
}