; Function Attrs: mustprogress nofree norecurse nosync nounwind willreturn memory(argmem: write) uwtable
define dso_local void @_ZN21btConeTwistConstraint4initEv(ptr noundef nonnull writeonly align 8 captures(none) dereferenceable(632) initializes((452, 484), (548, 551), (576, 577), (596, 600), (616, 632)) %0) local_unnamed_addr #2 align 2 {
  %2 = getelementptr inbounds nuw i8, ptr %0, i64 548
  store i8 0, ptr %2, align 4, !tbaa !38
  %3 = getelementptr inbounds nuw i8, ptr %0, i64 549
  store i8 0, ptr %3, align 1, !tbaa !39
  %4 = getelementptr inbounds nuw i8, ptr %0, i64 550
  store i8 0, ptr %4, align 2, !tbaa !40
  %5 = getelementptr inbounds nuw i8, ptr %0, i64 576
  store i8 0, ptr %5, align 8, !tbaa !10
  %6 = getelementptr inbounds nuw i8, ptr %0, i64 596
  store float -1.000000e+00, ptr %6, align 4, !tbaa !25
  %7 = getelementptr inbounds nuw i8, ptr %0, i64 468
  store float 0x43ABC16D60000000, ptr %7, align 4, !tbaa !26
  %8 = getelementptr inbounds nuw i8, ptr %0, i64 472
  store float 0x43ABC16D60000000, ptr %8, align 8, !tbaa !27
  %9 = getelementptr inbounds nuw i8, ptr %0, i64 476
  store float 0x43ABC16D60000000, ptr %9, align 4, !tbaa !28
  %10 = getelementptr inbounds nuw i8, ptr %0, i64 452
  store float 1.000000e+00, ptr %10, align 4, !tbaa !29
  %11 = getelementptr inbounds nuw i8, ptr %0, i64 456
  store float 0x3FD3333340000000, ptr %11, align 8, !tbaa !30
  %12 = getelementptr inbounds nuw i8, ptr %0, i64 460
  store float 1.000000e+00, ptr %12, align 4, !tbaa !31
  %13 = getelementptr inbounds nuw i8, ptr %0, i64 464
  store float 0x3F847AE140000000, ptr %13, align 8, !tbaa !32
  %14 = getelementptr inbounds nuw i8, ptr %0, i64 480
  store float 0x3FA99999A0000000, ptr %14, align 8, !tbaa !33
  %15 = getelementptr inbounds nuw i8, ptr %0, i64 616
  store i32 0, ptr %15, align 8, !tbaa !34
  %16 = getelementptr inbounds nuw i8, ptr %0, i64 620
  store float 0.000000e+00, ptr %16, align 4, !tbaa !35
  %17 = getelementptr inbounds nuw i8, ptr %0, i64 624
  store float 0x3FE6666660000000, ptr %17, align 8, !tbaa !36
  %18 = getelementptr inbounds nuw i8, ptr %0, i64 628
  store float 0.000000e+00, ptr %18, align 4, !tbaa !37
  ret void
}